; Function Attrs: nounwind uwtable
define ptr @evhttp_connection_new(ptr noundef %0, i16 noundef zeroext %1) local_unnamed_addr #0 {
  %3 = load i32, ptr @event_debug_logging_mask_, align 4
  %.not.i.i = icmp eq i32 %3, 0
  br i1 %.not.i.i, label %6, label %4

4:                                                ; preds = %2
  %5 = zext i16 %1 to i32
  tail call void (ptr, ...) @event_debugx_(ptr noundef nonnull @.str.10, ptr noundef %0, i32 noundef %5) #18
  br label %6

6:                                                ; preds = %4, %2
  %7 = tail call fastcc ptr @evhttp_connection_new_(ptr noundef null, ptr noundef null)
  %cond.i.i = icmp eq ptr %7, null
  br i1 %cond.i.i, label %evhttp_connection_base_new.exit, label %8

8:                                                ; preds = %6
  %9 = tail call ptr @event_mm_strdup_(ptr noundef %0) #18
  %10 = getelementptr inbounds nuw i8, ptr %7, i64 160
  store ptr %9, ptr %10, align 8
  %11 = icmp eq ptr %9, null
  br i1 %11, label %15, label %12

12:                                               ; preds = %8
  %13 = getelementptr inbounds nuw i8, ptr %7, i64 168
  store i16 %1, ptr %13, align 8
  %14 = getelementptr inbounds nuw i8, ptr %7, i64 392
  store ptr null, ptr %14, align 8
  br label %evhttp_connection_base_new.exit

15:                                               ; preds = %8
  tail call void (ptr, ...) @event_warn(ptr noundef nonnull @.str.9, ptr noundef nonnull @__func__.evhttp_connection_base_bufferevent_new) #18
  tail call void @evhttp_connection_free(ptr noundef nonnull %7)
  br label %evhttp_connection_base_new.exit

evhttp_connection_base_new.exit:                  ; preds = %6, %12, %15
  %.0.i.i = phi ptr [ %7, %12 ], [ null, %6 ], [ null, %15 ]
  ret ptr %.0.i.i
}